target datalayout = "e-m:e-p270:32:32-p271:32:32-p272:64:64-i64:64-i128:128-f80:128-n8:16:32:64-S128"
target triple = "x86_64-pc-linux-gnu"

%struct.rb_io = type { i64, ptr, i32, i32, i32, i32, i64, ptr, %struct.rb_io_internal_buffer, %struct.rb_io_internal_buffer, i64, %struct.rb_io_encoding, ptr, %struct.rb_io_internal_buffer, ptr, i64, i32, i32, i64, i64, i64 }
%struct.rb_io_encoding = type { ptr, ptr, i32, i64 }
%struct.rb_io_internal_buffer = type <{ ptr, i32, i32, i32 }>

@rb_eIOError = dso_local global i64 0, align 8
@.str.4 = private unnamed_addr constant [21 x i8] c"uninitialized stream\00", align 1
@.str.8 = private unnamed_addr constant [23 x i8] c"not opened for writing\00", align 1
@closed_stream = internal constant [14 x i8] c"closed stream\00", align 1

; Function Attrs: nounwind sspstrong uwtable
define internal void @io_fd_check_closed(i32 noundef %0) #0 {
  %2 = alloca i32, align 4
  store i32 %0, ptr %2, align 4, !tbaa !13
  %3 = load i32, ptr %2, align 4, !tbaa !13
  %4 = icmp slt i32 %3, 0
  br i1 %4, label %5, label %7

5:                                                ; preds = %1
  call void @rb_thread_check_ints()
  %6 = load i64, ptr @rb_eIOError, align 8, !tbaa !32
  call void (i64, ptr, ...) @rb_raise(i64 noundef %6, ptr noundef @closed_stream) #31
  unreachable

7:                                                ; preds = %1
  ret void
}

; Function Attrs: nounwind sspstrong uwtable
define dso_local void @rb_io_check_initialized(ptr noundef %0) #0 {
  %2 = alloca ptr, align 8
  store ptr %0, ptr %2, align 8, !tbaa !7
  %3 = load ptr, ptr %2, align 8, !tbaa !7
  %4 = icmp ne ptr %3, null
  br i1 %4, label %7, label %5

5:                                                ; preds = %1
  %6 = load i64, ptr @rb_eIOError, align 8, !tbaa !32
  call void (i64, ptr, ...) @rb_raise(i64 noundef %6, ptr noundef @.str.4) #31
  unreachable

7:                                                ; preds = %1
  ret void
}

; Function Attrs: nounwind sspstrong uwtable
define dso_local void @rb_io_check_closed(ptr noundef %0) #0 {
  %2 = alloca ptr, align 8
  store ptr %0, ptr %2, align 8, !tbaa !7
  %3 = load ptr, ptr %2, align 8, !tbaa !7
  call void @rb_io_check_initialized(ptr noundef %3)
  %4 = load ptr, ptr %2, align 8, !tbaa !7
  %5 = getelementptr inbounds nuw %struct.rb_io, ptr %4, i32 0, i32 2
  %6 = load i32, ptr %5, align 8, !tbaa !15
  call void @io_fd_check_closed(i32 noundef %6)
  ret void
}

; Function Attrs: nounwind sspstrong uwtable
define dso_local void @rb_io_check_writable(ptr noundef %0) #0 {
  %2 = alloca ptr, align 8
  store ptr %0, ptr %2, align 8, !tbaa !7
  %3 = load ptr, ptr %2, align 8, !tbaa !7
  call void @rb_io_check_closed(ptr noundef %3)
  %4 = load ptr, ptr %2, align 8, !tbaa !7
  %5 = getelementptr inbounds nuw %struct.rb_io, ptr %4, i32 0, i32 3
  %6 = load i32, ptr %5, align 4, !tbaa !38
  %7 = and i32 %6, 2
  %8 = icmp ne i32 %7, 0
  br i1 %8, label %11, label %9

9:                                                ; preds = %1
  %10 = load i64, ptr @rb_eIOError, align 8, !tbaa !32
  call void (i64, ptr, ...) @rb_raise(i64 noundef %10, ptr noundef @.str.8) #31
  unreachable

11:                                               ; preds = %1
  %12 = load ptr, ptr %2, align 8, !tbaa !7
  %13 = getelementptr inbounds nuw %struct.rb_io, ptr %12, i32 0, i32 9
  %14 = getelementptr inbounds nuw %struct.rb_io_internal_buffer, ptr %13, i32 0, i32 2
  %15 = load i32, ptr %14, align 4, !tbaa !44
  %16 = icmp ne i32 %15, 0
  br i1 %16, label %17, label %19

17:                                               ; preds = %11
  %18 = load ptr, ptr %2, align 8, !tbaa !7
  call void @io_unread(ptr noundef %18, i1 noundef zeroext true)
  br label %19

19:                                               ; preds = %17, %11
  ret void
}