; Function Attrs: nounwind sspstrong uwtable
define dso_local void @rb_io_check_writable(ptr noundef captures(address_is_null) %0) local_unnamed_addr #0 {
  %.not.i.i = icmp eq ptr %0, null
  br i1 %.not.i.i, label %2, label %rb_io_check_initialized.exit.i

2:                                                ; preds = %1
  %3 = load i64, ptr @rb_eIOError, align 8, !tbaa !23
  tail call void (i64, ptr, ...) @rb_raise(i64 noundef %3, ptr noundef nonnull @.str.4) #30
  unreachable

rb_io_check_initialized.exit.i:                   ; preds = %1
  %4 = getelementptr inbounds nuw i8, ptr %0, i64 16
  %5 = load i32, ptr %4, align 8, !tbaa !7
  %6 = icmp slt i32 %5, 0
  br i1 %6, label %7, label %rb_io_check_closed.exit

7:                                                ; preds = %rb_io_check_initialized.exit.i
  tail call void @rb_thread_check_ints() #28
  %8 = load i64, ptr @rb_eIOError, align 8, !tbaa !23
  tail call void (i64, ptr, ...) @rb_raise(i64 noundef %8, ptr noundef nonnull @closed_stream) #30
  unreachable

rb_io_check_closed.exit:                          ; preds = %rb_io_check_initialized.exit.i
  %9 = getelementptr inbounds nuw i8, ptr %0, i64 20
  %10 = load i32, ptr %9, align 4, !tbaa !34
  %11 = and i32 %10, 2
  %.not = icmp eq i32 %11, 0
  br i1 %.not, label %12, label %14

12:                                               ; preds = %rb_io_check_closed.exit
  %13 = load i64, ptr @rb_eIOError, align 8, !tbaa !23
  tail call void (i64, ptr, ...) @rb_raise(i64 noundef %13, ptr noundef nonnull @.str.8) #30
  unreachable

14:                                               ; preds = %rb_io_check_closed.exit
  %15 = getelementptr inbounds nuw i8, ptr %0, i64 80
  %16 = load i32, ptr %15, align 4, !tbaa !42
  %.not4 = icmp eq i32 %16, 0
  br i1 %.not4, label %18, label %17

17:                                               ; preds = %14
  tail call fastcc void @io_unread(ptr noundef nonnull %0, i1 noundef zeroext true)
  br label %18

18:                                               ; preds = %17, %14
  ret void
}